; Function Attrs: mustprogress uwtable
define internal void @_ZN3gmx12_GLOBAL__N_118serializeValueTypeINSt7__cxx1112basic_stringIcSt11char_traitsIcESaIcEEEEEvRKNS_17KeyValueTreeValueEPNS_11ISerializerE(ptr noundef nonnull readonly align 8 captures(none) dereferenceable(8) %0, ptr noundef %1) #6 {
  %3 = load ptr, ptr %0, align 8, !tbaa !49
  %.not.i.i.i.i.i.i = icmp eq ptr %3, null
  br i1 %.not.i.i.i.i.i.i, label %16, label %4

4:                                                ; preds = %2
  %5 = load ptr, ptr %3, align 8, !tbaa !18
  %6 = getelementptr inbounds nuw i8, ptr %5, i64 16
  %7 = load ptr, ptr %6, align 8
  %8 = tail call noundef nonnull align 8 dereferenceable(16) ptr %7(ptr noundef nonnull align 8 dereferenceable(8) %3)
  %9 = getelementptr inbounds nuw i8, ptr %8, i64 8
  %10 = load ptr, ptr %9, align 8, !tbaa !40
  %11 = icmp eq ptr %10, @_ZTSNSt7__cxx1112basic_stringIcSt11char_traitsIcESaIcEEE
  br i1 %11, label %_ZNK3gmx17KeyValueTreeValue4castINSt7__cxx1112basic_stringIcSt11char_traitsIcESaIcEEEEERKT_v.exit, label %12

12:                                               ; preds = %4
  %13 = load i8, ptr %10, align 1, !tbaa !32
  %.not.i.i.i.i.i = icmp eq i8 %13, 42
  br i1 %.not.i.i.i.i.i, label %16, label %_ZNK3gmx3Any6isTypeINSt7__cxx1112basic_stringIcSt11char_traitsIcESaIcEEEEEbv.exit.i.i.i

_ZNK3gmx3Any6isTypeINSt7__cxx1112basic_stringIcSt11char_traitsIcESaIcEEEEEbv.exit.i.i.i: ; preds = %12
  %14 = tail call i32 @strcmp(ptr noundef nonnull dereferenceable(1) %10, ptr noundef nonnull dereferenceable(53) @_ZTSNSt7__cxx1112basic_stringIcSt11char_traitsIcESaIcEEE) #21
  %15 = icmp eq i32 %14, 0
  br i1 %15, label %_ZNK3gmx17KeyValueTreeValue4castINSt7__cxx1112basic_stringIcSt11char_traitsIcESaIcEEEEERKT_v.exit, label %16

16:                                               ; preds = %_ZNK3gmx3Any6isTypeINSt7__cxx1112basic_stringIcSt11char_traitsIcESaIcEEEEEbv.exit.i.i.i, %12, %2
  tail call void @_ZN3gmx8internal13assertHandlerEPKcS2_S2_S2_i(ptr noundef nonnull @.str.5, ptr noundef nonnull @.str.6, ptr noundef nonnull @__PRETTY_FUNCTION__._ZZNK3gmx3Any4castINS_18KeyValueTreeObjectEEERKT_vENKUlvE_clEv, ptr noundef nonnull @.str.7, i32 noundef 190) #24
  unreachable

_ZNK3gmx17KeyValueTreeValue4castINSt7__cxx1112basic_stringIcSt11char_traitsIcESaIcEEEEERKT_v.exit: ; preds = %4, %_ZNK3gmx3Any6isTypeINSt7__cxx1112basic_stringIcSt11char_traitsIcESaIcEEEEEbv.exit.i.i.i
  %17 = load ptr, ptr %0, align 8, !tbaa !49
  %18 = getelementptr inbounds nuw i8, ptr %17, i64 8
  %19 = load ptr, ptr %1, align 8, !tbaa !18
  %20 = getelementptr inbounds nuw i8, ptr %19, i64 120
  %21 = load ptr, ptr %20, align 8
  tail call void %21(ptr noundef nonnull align 8 dereferenceable(8) %1, ptr noundef nonnull align 8 dereferenceable(32) %18)
  ret void
}